target datalayout = "e-m:e-p270:32:32-p271:32:32-p272:64:64-i64:64-i128:128-f80:128-n8:16:32:64-S128"
target triple = "x86_64-pc-linux-gnu"

%struct.x509_attributes_st = type { ptr, i32, %union.anon }
%union.anon = type { ptr }
%struct.asn1_string_st = type { i32, i32, ptr, i64 }

@.str = private unnamed_addr constant [126 x i8] c"generated/home/dtcxzyw/WorkSpace/Projects/compilers/llvm-opt-benchmark/bench/libquic/libquic/boringssl/crypto/x509/x509_att.c\00", align 1

; Function Attrs: nounwind uwtable
define hidden i32 @X509_ATTRIBUTE_set1_data(ptr noundef %0, i32 noundef %1, ptr noundef %2, i32 noundef %3) #0 {
  %5 = alloca i32, align 4
  %6 = alloca ptr, align 8
  %7 = alloca i32, align 4
  %8 = alloca ptr, align 8
  %9 = alloca i32, align 4
  %10 = alloca ptr, align 8
  %11 = alloca ptr, align 8
  %12 = alloca i32, align 4
  %13 = alloca i32, align 4
  store ptr %0, ptr %6, align 8, !tbaa !15
  store i32 %1, ptr %7, align 4, !tbaa !11
  store ptr %2, ptr %8, align 8, !tbaa !27
  store i32 %3, ptr %9, align 4, !tbaa !11
  call void @llvm.lifetime.start.p0(i64 8, ptr %10) #3
  call void @llvm.lifetime.start.p0(i64 8, ptr %11) #3
  store ptr null, ptr %11, align 8, !tbaa !32
  call void @llvm.lifetime.start.p0(i64 4, ptr %12) #3
  store i32 0, ptr %12, align 4, !tbaa !11
  %14 = load ptr, ptr %6, align 8, !tbaa !15
  %15 = icmp ne ptr %14, null
  br i1 %15, label %17, label %16

16:                                               ; preds = %4
  store i32 0, ptr %5, align 4
  store i32 1, ptr %13, align 4
  br label %100

17:                                               ; preds = %4
  %18 = load i32, ptr %7, align 4, !tbaa !11
  %19 = and i32 %18, 4096
  %20 = icmp ne i32 %19, 0
  br i1 %20, label %21, label %37

21:                                               ; preds = %17
  %22 = load ptr, ptr %8, align 8, !tbaa !27
  %23 = load i32, ptr %9, align 4, !tbaa !11
  %24 = load i32, ptr %7, align 4, !tbaa !11
  %25 = load ptr, ptr %6, align 8, !tbaa !15
  %26 = getelementptr inbounds nuw %struct.x509_attributes_st, ptr %25, i32 0, i32 0
  %27 = load ptr, ptr %26, align 8, !tbaa !17
  %28 = call i32 @OBJ_obj2nid(ptr noundef %27)
  %29 = call ptr @ASN1_STRING_set_by_NID(ptr noundef null, ptr noundef %22, i32 noundef %23, i32 noundef %24, i32 noundef %28)
  store ptr %29, ptr %11, align 8, !tbaa !32
  %30 = load ptr, ptr %11, align 8, !tbaa !32
  %31 = icmp ne ptr %30, null
  br i1 %31, label %33, label %32

32:                                               ; preds = %21
  call void @ERR_put_error(i32 noundef 11, i32 noundef 0, i32 noundef 12, ptr noundef @.str, i32 noundef 299)
  store i32 0, ptr %5, align 4
  store i32 1, ptr %13, align 4
  br label %100

33:                                               ; preds = %21
  %34 = load ptr, ptr %11, align 8, !tbaa !32
  %35 = getelementptr inbounds nuw %struct.asn1_string_st, ptr %34, i32 0, i32 1
  %36 = load i32, ptr %35, align 4, !tbaa !34
  store i32 %36, ptr %12, align 4, !tbaa !11
  br label %55

37:                                               ; preds = %17
  %38 = load i32, ptr %9, align 4, !tbaa !11
  %39 = icmp ne i32 %38, -1
  br i1 %39, label %40, label %54

40:                                               ; preds = %37
  %41 = load i32, ptr %7, align 4, !tbaa !11
  %42 = call ptr @ASN1_STRING_type_new(i32 noundef %41)
  store ptr %42, ptr %11, align 8, !tbaa !32
  %43 = icmp ne ptr %42, null
  br i1 %43, label %45, label %44

44:                                               ; preds = %40
  br label %99

45:                                               ; preds = %40
  %46 = load ptr, ptr %11, align 8, !tbaa !32
  %47 = load ptr, ptr %8, align 8, !tbaa !27
  %48 = load i32, ptr %9, align 4, !tbaa !11
  %49 = call i32 @ASN1_STRING_set(ptr noundef %46, ptr noundef %47, i32 noundef %48)
  %50 = icmp ne i32 %49, 0
  br i1 %50, label %52, label %51

51:                                               ; preds = %45
  br label %99

52:                                               ; preds = %45
  %53 = load i32, ptr %7, align 4, !tbaa !11
  store i32 %53, ptr %12, align 4, !tbaa !11
  br label %54

54:                                               ; preds = %52, %37
  br label %55

55:                                               ; preds = %54, %33
  %56 = call ptr @sk_new_null()
  %57 = load ptr, ptr %6, align 8, !tbaa !15
  %58 = getelementptr inbounds nuw %struct.x509_attributes_st, ptr %57, i32 0, i32 2
  store ptr %56, ptr %58, align 8, !tbaa !29
  %59 = icmp ne ptr %56, null
  br i1 %59, label %61, label %60

60:                                               ; preds = %55
  br label %99

61:                                               ; preds = %55
  %62 = load ptr, ptr %6, align 8, !tbaa !15
  %63 = getelementptr inbounds nuw %struct.x509_attributes_st, ptr %62, i32 0, i32 1
  store i32 0, ptr %63, align 8, !tbaa !28
  %64 = load i32, ptr %7, align 4, !tbaa !11
  %65 = icmp eq i32 %64, 0
  br i1 %65, label %66, label %67

66:                                               ; preds = %61
  store i32 1, ptr %5, align 4
  store i32 1, ptr %13, align 4
  br label %100

67:                                               ; preds = %61
  %68 = call ptr @ASN1_TYPE_new()
  store ptr %68, ptr %10, align 8, !tbaa !30
  %69 = icmp ne ptr %68, null
  br i1 %69, label %71, label %70

70:                                               ; preds = %67
  br label %99

71:                                               ; preds = %67
  %72 = load i32, ptr %9, align 4, !tbaa !11
  %73 = icmp eq i32 %72, -1
  br i1 %73, label %74, label %86

74:                                               ; preds = %71
  %75 = load i32, ptr %7, align 4, !tbaa !11
  %76 = and i32 %75, 4096
  %77 = icmp ne i32 %76, 0
  br i1 %77, label %86, label %78

78:                                               ; preds = %74
  %79 = load ptr, ptr %10, align 8, !tbaa !30
  %80 = load i32, ptr %7, align 4, !tbaa !11
  %81 = load ptr, ptr %8, align 8, !tbaa !27
  %82 = call i32 @ASN1_TYPE_set1(ptr noundef %79, i32 noundef %80, ptr noundef %81)
  %83 = icmp ne i32 %82, 0
  br i1 %83, label %85, label %84

84:                                               ; preds = %78
  br label %99

85:                                               ; preds = %78
  br label %90

86:                                               ; preds = %74, %71
  %87 = load ptr, ptr %10, align 8, !tbaa !30
  %88 = load i32, ptr %12, align 4, !tbaa !11
  %89 = load ptr, ptr %11, align 8, !tbaa !32
  call void @ASN1_TYPE_set(ptr noundef %87, i32 noundef %88, ptr noundef %89)
  br label %90

90:                                               ; preds = %86, %85
  %91 = load ptr, ptr %6, align 8, !tbaa !15
  %92 = getelementptr inbounds nuw %struct.x509_attributes_st, ptr %91, i32 0, i32 2
  %93 = load ptr, ptr %92, align 8, !tbaa !29
  %94 = load ptr, ptr %10, align 8, !tbaa !30
  %95 = call i64 @sk_push(ptr noundef %93, ptr noundef %94)
  %96 = icmp ne i64 %95, 0
  br i1 %96, label %98, label %97

97:                                               ; preds = %90
  br label %99

98:                                               ; preds = %90
  store i32 1, ptr %5, align 4
  store i32 1, ptr %13, align 4
  br label %100

99:                                               ; preds = %97, %84, %70, %60, %51, %44
  call void @ERR_put_error(i32 noundef 11, i32 noundef 0, i32 noundef 65, ptr noundef @.str, i32 noundef 331)
  store i32 0, ptr %5, align 4
  store i32 1, ptr %13, align 4
  br label %100

100:                                              ; preds = %99, %98, %66, %32, %16
  call void @llvm.lifetime.end.p0(i64 4, ptr %12) #3
  call void @llvm.lifetime.end.p0(i64 8, ptr %11) #3
  call void @llvm.lifetime.end.p0(i64 8, ptr %10) #3
  %101 = load i32, ptr %5, align 4
  ret i32 %101
}