; Function Attrs: nounwind uwtable
define hidden range(i32 0, 2) i32 @X509_ATTRIBUTE_set1_data(ptr noundef captures(address_is_null) %0, i32 noundef %1, ptr noundef %2, i32 noundef %3) local_unnamed_addr #0 {
  %.not = icmp eq ptr %0, null
  br i1 %.not, label %37, label %5

5:                                                ; preds = %4
  %6 = and i32 %1, 4096
  %.not35 = icmp ne i32 %6, 0
  br i1 %.not35, label %7, label %15

7:                                                ; preds = %5
  %8 = load ptr, ptr %0, align 8, !tbaa !6
  %9 = tail call i32 @OBJ_obj2nid(ptr noundef %8) #4
  %10 = tail call ptr @ASN1_STRING_set_by_NID(ptr noundef null, ptr noundef %2, i32 noundef %3, i32 noundef %1, i32 noundef %9) #4
  %.not39 = icmp eq ptr %10, null
  br i1 %.not39, label %11, label %12

11:                                               ; preds = %7
  tail call void @ERR_put_error(i32 noundef 11, i32 noundef 0, i32 noundef 12, ptr noundef nonnull @.str, i32 noundef 299) #4
  br label %37

12:                                               ; preds = %7
  %13 = getelementptr inbounds nuw i8, ptr %10, i64 4
  %14 = load i32, ptr %13, align 4, !tbaa !21
  br label %20

15:                                               ; preds = %5
  %.not36 = icmp eq i32 %3, -1
  br i1 %.not36, label %20, label %16

16:                                               ; preds = %15
  %17 = tail call ptr @ASN1_STRING_type_new(i32 noundef %1) #4
  %.not37 = icmp eq ptr %17, null
  br i1 %.not37, label %36, label %18

18:                                               ; preds = %16
  %19 = tail call i32 @ASN1_STRING_set(ptr noundef nonnull %17, ptr noundef %2, i32 noundef %3) #4
  %.not38 = icmp eq i32 %19, 0
  br i1 %.not38, label %36, label %20

20:                                               ; preds = %18, %15, %12
  %.027 = phi ptr [ %10, %12 ], [ null, %15 ], [ %17, %18 ]
  %.0 = phi i32 [ %14, %12 ], [ 0, %15 ], [ %1, %18 ]
  %21 = tail call ptr @sk_new_null() #4
  %22 = getelementptr inbounds nuw i8, ptr %0, i64 16
  store ptr %21, ptr %22, align 8, !tbaa !20
  %.not40 = icmp eq ptr %21, null
  br i1 %.not40, label %36, label %23

23:                                               ; preds = %20
  %24 = getelementptr inbounds nuw i8, ptr %0, i64 8
  store i32 0, ptr %24, align 8, !tbaa !19
  %25 = icmp eq i32 %1, 0
  br i1 %25, label %37, label %26

26:                                               ; preds = %23
  %27 = tail call ptr @ASN1_TYPE_new() #4
  %.not41 = icmp eq ptr %27, null
  br i1 %.not41, label %36, label %28

28:                                               ; preds = %26
  %29 = icmp ne i32 %3, -1
  %brmerge = or i1 %.not35, %29
  br i1 %brmerge, label %32, label %30

30:                                               ; preds = %28
  %31 = tail call i32 @ASN1_TYPE_set1(ptr noundef nonnull %27, i32 noundef %1, ptr noundef %2) #4
  %.not42 = icmp eq i32 %31, 0
  br i1 %.not42, label %36, label %33

32:                                               ; preds = %28
  tail call void @ASN1_TYPE_set(ptr noundef nonnull %27, i32 noundef %.0, ptr noundef %.027) #4
  br label %33

33:                                               ; preds = %30, %32
  %34 = load ptr, ptr %22, align 8, !tbaa !20
  %35 = tail call i64 @sk_push(ptr noundef %34, ptr noundef nonnull %27) #4
  %.not43 = icmp eq i64 %35, 0
  br i1 %.not43, label %36, label %37

36:                                               ; preds = %33, %30, %26, %20, %18, %16
  tail call void @ERR_put_error(i32 noundef 11, i32 noundef 0, i32 noundef 65, ptr noundef nonnull @.str, i32 noundef 331) #4
  br label %37

37:                                               ; preds = %33, %23, %4, %36, %11
  %.028 = phi i32 [ 0, %36 ], [ 0, %11 ], [ 0, %4 ], [ 1, %23 ], [ 1, %33 ]
  ret i32 %.028
}